target datalayout = "e-m:e-p270:32:32-p271:32:32-p272:64:64-i64:64-i128:128-f80:128-n8:16:32:64-S128"
target triple = "x86_64-pc-linux-gnu"

%struct.BufFile = type { i32, ptr, i8, i8, i8, ptr, ptr, ptr, i32, i64, i32, i32, %union.PGAlignedBlock }
%union.PGAlignedBlock = type { double, [8184 x i8] }

; Function Attrs: nounwind uwtable
define dso_local void @BufFileWrite(ptr noundef %0, ptr noundef %1, i64 noundef %2) #0 {
  %4 = alloca ptr, align 8
  %5 = alloca ptr, align 8
  %6 = alloca i64, align 8
  %7 = alloca i64, align 8
  store ptr %0, ptr %4, align 8
  store ptr %1, ptr %5, align 8
  store i64 %2, ptr %6, align 8
  call void @llvm.lifetime.start.p0(i64 8, ptr %7) #8
  br label %8

8:                                                ; preds = %81, %3
  %9 = load i64, ptr %6, align 8
  %10 = icmp ugt i64 %9, 0
  br i1 %10, label %11, label %88

11:                                               ; preds = %8
  %12 = load ptr, ptr %4, align 8
  %13 = getelementptr inbounds nuw %struct.BufFile, ptr %12, i32 0, i32 10
  %14 = load i32, ptr %13, align 8
  %15 = icmp sge i32 %14, 8192
  br i1 %15, label %16, label %37

16:                                               ; preds = %11
  %17 = load ptr, ptr %4, align 8
  %18 = getelementptr inbounds nuw %struct.BufFile, ptr %17, i32 0, i32 3
  %19 = load i8, ptr %18, align 1, !range !4, !noundef !5
  %20 = trunc i8 %19 to i1
  br i1 %20, label %21, label %23

21:                                               ; preds = %16
  %22 = load ptr, ptr %4, align 8
  call void @BufFileDumpBuffer(ptr noundef %22)
  br label %36

23:                                               ; preds = %16
  %24 = load ptr, ptr %4, align 8
  %25 = getelementptr inbounds nuw %struct.BufFile, ptr %24, i32 0, i32 10
  %26 = load i32, ptr %25, align 8
  %27 = sext i32 %26 to i64
  %28 = load ptr, ptr %4, align 8
  %29 = getelementptr inbounds nuw %struct.BufFile, ptr %28, i32 0, i32 9
  %30 = load i64, ptr %29, align 8
  %31 = add i64 %30, %27
  store i64 %31, ptr %29, align 8
  %32 = load ptr, ptr %4, align 8
  %33 = getelementptr inbounds nuw %struct.BufFile, ptr %32, i32 0, i32 10
  store i32 0, ptr %33, align 8
  %34 = load ptr, ptr %4, align 8
  %35 = getelementptr inbounds nuw %struct.BufFile, ptr %34, i32 0, i32 11
  store i32 0, ptr %35, align 4
  br label %36

36:                                               ; preds = %23, %21
  br label %37

37:                                               ; preds = %36, %11
  %38 = load ptr, ptr %4, align 8
  %39 = getelementptr inbounds nuw %struct.BufFile, ptr %38, i32 0, i32 10
  %40 = load i32, ptr %39, align 8
  %41 = sub i32 8192, %40
  %42 = sext i32 %41 to i64
  store i64 %42, ptr %7, align 8
  %43 = load i64, ptr %7, align 8
  %44 = load i64, ptr %6, align 8
  %45 = icmp ugt i64 %43, %44
  br i1 %45, label %46, label %48

46:                                               ; preds = %37
  %47 = load i64, ptr %6, align 8
  store i64 %47, ptr %7, align 8
  br label %48

48:                                               ; preds = %46, %37
  %49 = load ptr, ptr %4, align 8
  %50 = getelementptr inbounds nuw %struct.BufFile, ptr %49, i32 0, i32 12
  %51 = getelementptr inbounds [8192 x i8], ptr %50, i64 0, i64 0
  %52 = load ptr, ptr %4, align 8
  %53 = getelementptr inbounds nuw %struct.BufFile, ptr %52, i32 0, i32 10
  %54 = load i32, ptr %53, align 8
  %55 = sext i32 %54 to i64
  %56 = getelementptr inbounds i8, ptr %51, i64 %55
  %57 = load ptr, ptr %5, align 8
  %58 = load i64, ptr %7, align 8
  call void @llvm.memcpy.p0.p0.i64(ptr align 1 %56, ptr align 1 %57, i64 %58, i1 false)
  %59 = load ptr, ptr %4, align 8
  %60 = getelementptr inbounds nuw %struct.BufFile, ptr %59, i32 0, i32 3
  store i8 1, ptr %60, align 1
  %61 = load i64, ptr %7, align 8
  %62 = load ptr, ptr %4, align 8
  %63 = getelementptr inbounds nuw %struct.BufFile, ptr %62, i32 0, i32 10
  %64 = load i32, ptr %63, align 8
  %65 = sext i32 %64 to i64
  %66 = add i64 %65, %61
  %67 = trunc i64 %66 to i32
  store i32 %67, ptr %63, align 8
  %68 = load ptr, ptr %4, align 8
  %69 = getelementptr inbounds nuw %struct.BufFile, ptr %68, i32 0, i32 11
  %70 = load i32, ptr %69, align 4
  %71 = load ptr, ptr %4, align 8
  %72 = getelementptr inbounds nuw %struct.BufFile, ptr %71, i32 0, i32 10
  %73 = load i32, ptr %72, align 8
  %74 = icmp slt i32 %70, %73
  br i1 %74, label %75, label %81

75:                                               ; preds = %48
  %76 = load ptr, ptr %4, align 8
  %77 = getelementptr inbounds nuw %struct.BufFile, ptr %76, i32 0, i32 10
  %78 = load i32, ptr %77, align 8
  %79 = load ptr, ptr %4, align 8
  %80 = getelementptr inbounds nuw %struct.BufFile, ptr %79, i32 0, i32 11
  store i32 %78, ptr %80, align 4
  br label %81

81:                                               ; preds = %75, %48
  %82 = load ptr, ptr %5, align 8
  %83 = load i64, ptr %7, align 8
  %84 = getelementptr inbounds nuw i8, ptr %82, i64 %83
  store ptr %84, ptr %5, align 8
  %85 = load i64, ptr %7, align 8
  %86 = load i64, ptr %6, align 8
  %87 = sub i64 %86, %85
  store i64 %87, ptr %6, align 8
  br label %8, !llvm.loop !9

88:                                               ; preds = %8
  call void @llvm.lifetime.end.p0(i64 8, ptr %7) #8
  ret void
}