; Function Attrs: nounwind uwtable
define dso_local void @BufFileWrite(ptr noundef %0, ptr noundef readonly captures(none) %1, i64 noundef %2) local_unnamed_addr #0 {
  %.not31 = icmp eq i64 %2, 0
  br i1 %.not31, label %._crit_edge, label %.lr.ph

.lr.ph:                                           ; preds = %3
  %4 = getelementptr inbounds nuw i8, ptr %0, i64 64
  %5 = getelementptr inbounds nuw i8, ptr %0, i64 17
  %6 = getelementptr inbounds nuw i8, ptr %0, i64 56
  %7 = getelementptr inbounds nuw i8, ptr %0, i64 68
  %8 = getelementptr inbounds nuw i8, ptr %0, i64 72
  %.pre = load i32, ptr %4, align 8
  br label %9

9:                                                ; preds = %.lr.ph, %32
  %10 = phi i32 [ %.pre, %.lr.ph ], [ %28, %32 ]
  %.02633 = phi i64 [ %2, %.lr.ph ], [ %34, %32 ]
  %.02732 = phi ptr [ %1, %.lr.ph ], [ %33, %32 ]
  %11 = icmp sgt i32 %10, 8191
  br i1 %11, label %12, label %20

12:                                               ; preds = %9
  %13 = load i8, ptr %5, align 1, !range !5, !noundef !6
  %14 = trunc nuw i8 %13 to i1
  br i1 %14, label %15, label %16

15:                                               ; preds = %12
  tail call fastcc void @BufFileDumpBuffer(ptr noundef nonnull %0)
  %.pre34 = load i32, ptr %4, align 8
  br label %20

16:                                               ; preds = %12
  %17 = zext nneg i32 %10 to i64
  %18 = load i64, ptr %6, align 8
  %19 = add i64 %18, %17
  store i64 %19, ptr %6, align 8
  store i32 0, ptr %4, align 8
  store i32 0, ptr %7, align 4
  br label %20

20:                                               ; preds = %15, %16, %9
  %21 = phi i32 [ %.pre34, %15 ], [ 0, %16 ], [ %10, %9 ]
  %22 = sub i32 8192, %21
  %23 = sext i32 %22 to i64
  %spec.select = tail call i64 @llvm.umin.i64(i64 %.02633, i64 %23)
  %24 = sext i32 %21 to i64
  %25 = getelementptr inbounds i8, ptr %8, i64 %24
  tail call void @llvm.memcpy.p0.p0.i64(ptr nonnull align 1 %25, ptr align 1 %.02732, i64 %spec.select, i1 false)
  store i8 1, ptr %5, align 1
  %26 = load i32, ptr %4, align 8
  %27 = trunc i64 %spec.select to i32
  %28 = add i32 %26, %27
  store i32 %28, ptr %4, align 8
  %29 = load i32, ptr %7, align 4
  %30 = icmp slt i32 %29, %28
  br i1 %30, label %31, label %32

31:                                               ; preds = %20
  store i32 %28, ptr %7, align 4
  br label %32

32:                                               ; preds = %31, %20
  %33 = getelementptr inbounds nuw i8, ptr %.02732, i64 %spec.select
  %34 = sub i64 %.02633, %spec.select
  %.not = icmp eq i64 %34, 0
  br i1 %.not, label %._crit_edge, label %9, !llvm.loop !10

._crit_edge:                                      ; preds = %32, %3
  ret void
}